; Function Attrs: nounwind uwtable
define internal noundef i32 @H5D__compact_dest(ptr noundef readonly captures(none) %0) #0 {
  %2 = load i8, ptr @H5D_init_g, align 1, !tbaa !3, !range !7, !noundef !8
  %3 = trunc nuw i8 %2 to i1
  %4 = load i8, ptr @H5_libterm_g, align 1, !range !7
  %5 = trunc nuw i8 %4 to i1
  %6 = xor i1 %5, true
  %7 = select i1 %3, i1 true, i1 %6
  br i1 %7, label %8, label %16, !prof !9

8:                                                ; preds = %1
  %9 = getelementptr inbounds nuw i8, ptr %0, i64 48
  %10 = load ptr, ptr %9, align 8, !tbaa !10
  %11 = getelementptr inbounds nuw i8, ptr %10, i64 2184
  %12 = load ptr, ptr %11, align 8, !tbaa !51
  %13 = tail call ptr @H5MM_xfree(ptr noundef %12) #8
  %14 = load ptr, ptr %9, align 8, !tbaa !10
  %15 = getelementptr inbounds nuw i8, ptr %14, i64 2184
  store ptr %13, ptr %15, align 8, !tbaa !51
  br label %16

16:                                               ; preds = %8, %1
  ret i32 0
}